ARM GAS  C:\Users\sergio\AppData\Local\Temp\ccXoQ2wk.s 			page 1


   1              		.syntax unified
   2              		.cpu cortex-m0
   3              		.fpu softvfp
   4              		.eabi_attribute 20, 1
   5              		.eabi_attribute 21, 1
   6              		.eabi_attribute 23, 3
   7              		.eabi_attribute 24, 1
   8              		.eabi_attribute 25, 1
   9              		.eabi_attribute 26, 1
  10              		.eabi_attribute 30, 1
  11              		.eabi_attribute 34, 0
  12              		.eabi_attribute 18, 4
  13              		.thumb
  14              		.syntax unified
  15              		.file	"SD_I2C.c"
  16              		.text
  17              	.Ltext0:
  18              		.cfi_sections	.debug_frame
  19              		.section	.text.Read_sensor_word,"ax",%progbits
  20              		.align	2
  21              		.global	Read_sensor_word
  22              		.code	16
  23              		.thumb_func
  24              		.type	Read_sensor_word, %function
  25              	Read_sensor_word:
  26              	.LFB35:
  27              		.file 1 "SD_I2C.c"
   1:SD_I2C.c      **** /* ========================================
   2:SD_I2C.c      ****  *
   3:SD_I2C.c      ****  * Copyright YOUR COMPANY, THE YEAR
   4:SD_I2C.c      ****  * All Rights Reserved
   5:SD_I2C.c      ****  * UNPUBLISHED, LICENSED SOFTWARE.
   6:SD_I2C.c      ****  *
   7:SD_I2C.c      ****  * CONFIDENTIAL AND PROPRIETARY INFORMATION
   8:SD_I2C.c      ****  * WHICH IS THE PROPERTY OF your company.
   9:SD_I2C.c      ****  *
  10:SD_I2C.c      ****  * ========================================
  11:SD_I2C.c      **** */
  12:SD_I2C.c      **** 
  13:SD_I2C.c      **** #include "SD_I2C.h"
  14:SD_I2C.c      **** 
  15:SD_I2C.c      **** 
  16:SD_I2C.c      **** uint16 Read_sensor_word(uint32 address, uint8 reg){
  28              		.loc 1 16 0
  29              		.cfi_startproc
  30              		@ args = 0, pretend = 0, frame = 8
  31              		@ frame_needed = 0, uses_anonymous_args = 0
  32              	.LVL0:
  33 0000 10B5     		push	{r4, lr}
  34              		.cfi_def_cfa_offset 8
  35              		.cfi_offset 4, -8
  36              		.cfi_offset 14, -4
  37 0002 82B0     		sub	sp, sp, #8
  38              		.cfi_def_cfa_offset 16
  39 0004 0400     		movs	r4, r0
  40 0006 0A00     		movs	r2, r1
  17:SD_I2C.c      ****     
ARM GAS  C:\Users\sergio\AppData\Local\Temp\ccXoQ2wk.s 			page 2


  18:SD_I2C.c      ****     uint8 write_buff[1] ={0};
  41              		.loc 1 18 0
  42 0008 01A9     		add	r1, sp, #4
  43              	.LVL1:
  44 000a 0023     		movs	r3, #0
  19:SD_I2C.c      ****     write_buff[0] = reg;
  45              		.loc 1 19 0
  46 000c 0A70     		strb	r2, [r1]
  20:SD_I2C.c      ****     
  21:SD_I2C.c      ****   volatile  uint8 read_buff[2] = {0,0};
  47              		.loc 1 21 0
  48 000e 6A46     		mov	r2, sp
  49 0010 1370     		strb	r3, [r2]
  50 0012 5370     		strb	r3, [r2, #1]
  22:SD_I2C.c      ****     
  23:SD_I2C.c      ****     I2C_1_I2CMasterWriteBuf(address, (uint8 *) write_buff, 1, I2C_1_I2C_MODE_NO_STOP);
  51              		.loc 1 23 0
  52 0014 0233     		adds	r3, r3, #2
  53 0016 0122     		movs	r2, #1
  54 0018 FFF7FEFF 		bl	I2C_1_I2CMasterWriteBuf
  55              	.LVL2:
  56              	.L2:
  24:SD_I2C.c      ****     while((I2C_1_I2CMasterStatus() & I2C_1_I2C_MSTAT_WR_CMPLT) == 0){}
  57              		.loc 1 24 0 discriminator 1
  58 001c FFF7FEFF 		bl	I2C_1_I2CMasterStatus
  59              	.LVL3:
  60 0020 8307     		lsls	r3, r0, #30
  61 0022 FBD5     		bpl	.L2
  25:SD_I2C.c      ****     
  26:SD_I2C.c      ****      I2C_1_I2CMasterReadBuf(address, (uint8 *) read_buff, 2, I2C_1_I2C_MODE_REPEAT_START);
  62              		.loc 1 26 0
  63 0024 0123     		movs	r3, #1
  64 0026 0222     		movs	r2, #2
  65 0028 6946     		mov	r1, sp
  66 002a 2000     		movs	r0, r4
  67 002c FFF7FEFF 		bl	I2C_1_I2CMasterReadBuf
  68              	.LVL4:
  69              	.L3:
  27:SD_I2C.c      ****     while((I2C_1_I2CMasterStatus() & I2C_1_I2C_MSTAT_RD_CMPLT) == 0){}
  70              		.loc 1 27 0 discriminator 1
  71 0030 FFF7FEFF 		bl	I2C_1_I2CMasterStatus
  72              	.LVL5:
  73 0034 C307     		lsls	r3, r0, #31
  74 0036 FBD5     		bpl	.L3
  28:SD_I2C.c      ****     
  29:SD_I2C.c      ****     return ((unsigned int) read_buff[0] << 8) | (unsigned int) read_buff[1];
  75              		.loc 1 29 0
  76 0038 6B46     		mov	r3, sp
  77 003a 1878     		ldrb	r0, [r3]
  78 003c 5B78     		ldrb	r3, [r3, #1]
  79 003e 0002     		lsls	r0, r0, #8
  80 0040 1843     		orrs	r0, r3
  30:SD_I2C.c      **** }
  81              		.loc 1 30 0
  82 0042 02B0     		add	sp, sp, #8
  83              		@ sp needed
  84              	.LVL6:
ARM GAS  C:\Users\sergio\AppData\Local\Temp\ccXoQ2wk.s 			page 3


  85 0044 10BD     		pop	{r4, pc}
  86              		.cfi_endproc
  87              	.LFE35:
  88              		.size	Read_sensor_word, .-Read_sensor_word
  89 0046 C046     		.section	.text.Read_sensor_byte,"ax",%progbits
  90              		.align	2
  91              		.global	Read_sensor_byte
  92              		.code	16
  93              		.thumb_func
  94              		.type	Read_sensor_byte, %function
  95              	Read_sensor_byte:
  96              	.LFB36:
  31:SD_I2C.c      **** 
  32:SD_I2C.c      **** uint8 Read_sensor_byte(uint32 address, uint8 reg){
  97              		.loc 1 32 0
  98              		.cfi_startproc
  99              		@ args = 0, pretend = 0, frame = 8
 100              		@ frame_needed = 0, uses_anonymous_args = 0
 101              	.LVL7:
 102 0000 10B5     		push	{r4, lr}
 103              		.cfi_def_cfa_offset 8
 104              		.cfi_offset 4, -8
 105              		.cfi_offset 14, -4
 106 0002 82B0     		sub	sp, sp, #8
 107              		.cfi_def_cfa_offset 16
 108 0004 0400     		movs	r4, r0
 109 0006 0A00     		movs	r2, r1
  33:SD_I2C.c      ****     
  34:SD_I2C.c      ****     uint8 write_buff[1] ={0};
 110              		.loc 1 34 0
 111 0008 01A9     		add	r1, sp, #4
 112              	.LVL8:
 113 000a 0023     		movs	r3, #0
  35:SD_I2C.c      ****     write_buff[0] = reg;
 114              		.loc 1 35 0
 115 000c 0A70     		strb	r2, [r1]
  36:SD_I2C.c      ****     
  37:SD_I2C.c      ****   volatile  uint8 read_buff[2] = {0,0};
 116              		.loc 1 37 0
 117 000e 6A46     		mov	r2, sp
 118 0010 1370     		strb	r3, [r2]
 119 0012 5370     		strb	r3, [r2, #1]
  38:SD_I2C.c      ****     
  39:SD_I2C.c      ****     I2C_1_I2CMasterWriteBuf(address, (uint8 *) write_buff, 1, I2C_1_I2C_MODE_NO_STOP);
 120              		.loc 1 39 0
 121 0014 0233     		adds	r3, r3, #2
 122 0016 0122     		movs	r2, #1
 123 0018 FFF7FEFF 		bl	I2C_1_I2CMasterWriteBuf
 124              	.LVL9:
 125              	.L5:
  40:SD_I2C.c      ****     while((I2C_1_I2CMasterStatus() & I2C_1_I2C_MSTAT_WR_CMPLT) == 0){}
 126              		.loc 1 40 0 discriminator 1
 127 001c FFF7FEFF 		bl	I2C_1_I2CMasterStatus
 128              	.LVL10:
 129 0020 8307     		lsls	r3, r0, #30
 130 0022 FBD5     		bpl	.L5
  41:SD_I2C.c      ****     
ARM GAS  C:\Users\sergio\AppData\Local\Temp\ccXoQ2wk.s 			page 4


  42:SD_I2C.c      ****      I2C_1_I2CMasterReadBuf(address, (uint8 *) read_buff, 1, I2C_1_I2C_MODE_REPEAT_START);
 131              		.loc 1 42 0
 132 0024 0123     		movs	r3, #1
 133 0026 0122     		movs	r2, #1
 134 0028 6946     		mov	r1, sp
 135 002a 2000     		movs	r0, r4
 136 002c FFF7FEFF 		bl	I2C_1_I2CMasterReadBuf
 137              	.LVL11:
 138              	.L6:
  43:SD_I2C.c      ****     while((I2C_1_I2CMasterStatus() & I2C_1_I2C_MSTAT_RD_CMPLT) == 0){}
 139              		.loc 1 43 0 discriminator 1
 140 0030 FFF7FEFF 		bl	I2C_1_I2CMasterStatus
 141              	.LVL12:
 142 0034 C307     		lsls	r3, r0, #31
 143 0036 FBD5     		bpl	.L6
  44:SD_I2C.c      ****     
  45:SD_I2C.c      ****     return read_buff[0];
 144              		.loc 1 45 0
 145 0038 6B46     		mov	r3, sp
 146 003a 1878     		ldrb	r0, [r3]
 147 003c C0B2     		uxtb	r0, r0
  46:SD_I2C.c      **** }
 148              		.loc 1 46 0
 149 003e 02B0     		add	sp, sp, #8
 150              		@ sp needed
 151              	.LVL13:
 152 0040 10BD     		pop	{r4, pc}
 153              		.cfi_endproc
 154              	.LFE36:
 155              		.size	Read_sensor_byte, .-Read_sensor_byte
 156 0042 C046     		.section	.text.test_sensor,"ax",%progbits
 157              		.align	2
 158              		.global	test_sensor
 159              		.code	16
 160              		.thumb_func
 161              		.type	test_sensor, %function
 162              	test_sensor:
 163              	.LFB37:
  47:SD_I2C.c      **** 
  48:SD_I2C.c      **** int test_sensor(uint32 address, uint8 reg){
 164              		.loc 1 48 0
 165              		.cfi_startproc
 166              		@ args = 0, pretend = 0, frame = 0
 167              		@ frame_needed = 0, uses_anonymous_args = 0
 168              	.LVL14:
 169 0000 10B5     		push	{r4, lr}
 170              		.cfi_def_cfa_offset 8
 171              		.cfi_offset 4, -8
 172              		.cfi_offset 14, -4
  49:SD_I2C.c      **** 
  50:SD_I2C.c      **** return Read_sensor_byte(address, reg) != 0x00 ? 1 : 0;
 173              		.loc 1 50 0
 174 0002 FFF7FEFF 		bl	Read_sensor_byte
 175              	.LVL15:
 176 0006 431E     		subs	r3, r0, #1
 177 0008 9841     		sbcs	r0, r0, r3
 178 000a C0B2     		uxtb	r0, r0
ARM GAS  C:\Users\sergio\AppData\Local\Temp\ccXoQ2wk.s 			page 5


  51:SD_I2C.c      **** 
  52:SD_I2C.c      **** }
 179              		.loc 1 52 0
 180              		@ sp needed
 181 000c 10BD     		pop	{r4, pc}
 182              		.cfi_endproc
 183              	.LFE37:
 184              		.size	test_sensor, .-test_sensor
 185 000e C046     		.section	.text.humidity_read,"ax",%progbits
 186              		.align	2
 187              		.global	humidity_read
 188              		.code	16
 189              		.thumb_func
 190              		.type	humidity_read, %function
 191              	humidity_read:
 192              	.LFB38:
  53:SD_I2C.c      **** uint16 humidity_read(uint32 address, uint8 reg){
 193              		.loc 1 53 0
 194              		.cfi_startproc
 195              		@ args = 0, pretend = 0, frame = 0
 196              		@ frame_needed = 0, uses_anonymous_args = 0
 197              	.LVL16:
 198 0000 10B5     		push	{r4, lr}
 199              		.cfi_def_cfa_offset 8
 200              		.cfi_offset 4, -8
 201              		.cfi_offset 14, -4
 202              	.LVL17:
  54:SD_I2C.c      ****     uint16 humidity = 0;
  55:SD_I2C.c      ****     humidity = ((125 * Read_sensor_word(address, reg))/65536)-6;
 203              		.loc 1 55 0
 204 0002 FFF7FEFF 		bl	Read_sensor_word
 205              	.LVL18:
 206 0006 4301     		lsls	r3, r0, #5
 207 0008 1B1A     		subs	r3, r3, r0
 208 000a 9B00     		lsls	r3, r3, #2
 209 000c 1818     		adds	r0, r3, r0
 210 000e C317     		asrs	r3, r0, #31
 211 0010 1B04     		lsls	r3, r3, #16
 212 0012 1B0C     		lsrs	r3, r3, #16
 213 0014 1818     		adds	r0, r3, r0
 214 0016 0014     		asrs	r0, r0, #16
 215 0018 0638     		subs	r0, r0, #6
 216 001a 80B2     		uxth	r0, r0
 217              	.LVL19:
  56:SD_I2C.c      ****     return humidity;
  57:SD_I2C.c      **** }
 218              		.loc 1 57 0
 219              		@ sp needed
 220 001c 10BD     		pop	{r4, pc}
 221              		.cfi_endproc
 222              	.LFE38:
 223              		.size	humidity_read, .-humidity_read
 224 001e C046     		.section	.text.temperature_local_read,"ax",%progbits
 225              		.align	2
 226              		.global	temperature_local_read
 227              		.code	16
 228              		.thumb_func
ARM GAS  C:\Users\sergio\AppData\Local\Temp\ccXoQ2wk.s 			page 6


 229              		.type	temperature_local_read, %function
 230              	temperature_local_read:
 231              	.LFB39:
  58:SD_I2C.c      **** 
  59:SD_I2C.c      **** uint8 temperature_local_read(uint32 address, uint8 reg){
 232              		.loc 1 59 0
 233              		.cfi_startproc
 234              		@ args = 0, pretend = 0, frame = 0
 235              		@ frame_needed = 0, uses_anonymous_args = 0
 236              	.LVL20:
 237 0000 10B5     		push	{r4, lr}
 238              		.cfi_def_cfa_offset 8
 239              		.cfi_offset 4, -8
 240              		.cfi_offset 14, -4
 241              	.LVL21:
  60:SD_I2C.c      ****   uint8 temperature = 0;
  61:SD_I2C.c      ****     temperature = Read_sensor_byte(address, reg);
 242              		.loc 1 61 0
 243 0002 FFF7FEFF 		bl	Read_sensor_byte
 244              	.LVL22:
  62:SD_I2C.c      ****     
  63:SD_I2C.c      ****     
  64:SD_I2C.c      ****     return 0;
  65:SD_I2C.c      **** }
 245              		.loc 1 65 0
 246 0006 0020     		movs	r0, #0
 247              		@ sp needed
 248 0008 10BD     		pop	{r4, pc}
 249              		.cfi_endproc
 250              	.LFE39:
 251              		.size	temperature_local_read, .-temperature_local_read
 252 000a C046     		.section	.text.temperature_remote_read,"ax",%progbits
 253              		.align	2
 254              		.global	temperature_remote_read
 255              		.code	16
 256              		.thumb_func
 257              		.type	temperature_remote_read, %function
 258              	temperature_remote_read:
 259              	.LFB40:
  66:SD_I2C.c      **** 
  67:SD_I2C.c      **** uint8 temperature_remote_read(uint32 address, uint8 reg){
 260              		.loc 1 67 0
 261              		.cfi_startproc
 262              		@ args = 0, pretend = 0, frame = 0
 263              		@ frame_needed = 0, uses_anonymous_args = 0
 264              	.LVL23:
 265 0000 10B5     		push	{r4, lr}
 266              		.cfi_def_cfa_offset 8
 267              		.cfi_offset 4, -8
 268              		.cfi_offset 14, -4
 269              	.LVL24:
  68:SD_I2C.c      **** uint8 temperature = 0;
  69:SD_I2C.c      ****     temperature = Read_sensor_byte(address, reg);
 270              		.loc 1 69 0
 271 0002 FFF7FEFF 		bl	Read_sensor_byte
 272              	.LVL25:
  70:SD_I2C.c      ****     
ARM GAS  C:\Users\sergio\AppData\Local\Temp\ccXoQ2wk.s 			page 7


  71:SD_I2C.c      ****     return 0;
  72:SD_I2C.c      **** }
 273              		.loc 1 72 0
 274 0006 0020     		movs	r0, #0
 275              		@ sp needed
 276 0008 10BD     		pop	{r4, pc}
 277              		.cfi_endproc
 278              	.LFE40:
 279              		.size	temperature_remote_read, .-temperature_remote_read
 280              		.global	__aeabi_i2f
 281              		.global	__aeabi_fdiv
 282 000a C046     		.section	.text.current_read,"ax",%progbits
 283              		.align	2
 284              		.global	current_read
 285              		.code	16
 286              		.thumb_func
 287              		.type	current_read, %function
 288              	current_read:
 289              	.LFB41:
  73:SD_I2C.c      **** 
  74:SD_I2C.c      **** float current_read(uint32 address, uint8 reg){
 290              		.loc 1 74 0
 291              		.cfi_startproc
 292              		@ args = 0, pretend = 0, frame = 8
 293              		@ frame_needed = 0, uses_anonymous_args = 0
 294              	.LVL26:
 295 0000 10B5     		push	{r4, lr}
 296              		.cfi_def_cfa_offset 8
 297              		.cfi_offset 4, -8
 298              		.cfi_offset 14, -4
 299 0002 82B0     		sub	sp, sp, #8
 300              		.cfi_def_cfa_offset 16
 301 0004 0400     		movs	r4, r0
 302 0006 0B00     		movs	r3, r1
  75:SD_I2C.c      ****     uint8 write_buff[1] ={0};
 303              		.loc 1 75 0
 304 0008 01A9     		add	r1, sp, #4
 305              	.LVL27:
  76:SD_I2C.c      ****     write_buff[0] = reg;
 306              		.loc 1 76 0
 307 000a 0B70     		strb	r3, [r1]
  77:SD_I2C.c      ****     
  78:SD_I2C.c      ****   volatile  uint8 read_buff[4] = {0,0,0,0};
 308              		.loc 1 78 0
 309 000c 0023     		movs	r3, #0
 310 000e 0093     		str	r3, [sp]
  79:SD_I2C.c      ****     
  80:SD_I2C.c      ****     I2C_1_I2CMasterWriteBuf(address, (uint8 *) write_buff, 1, I2C_1_I2C_MODE_NO_STOP);
 311              		.loc 1 80 0
 312 0010 0233     		adds	r3, r3, #2
 313 0012 0122     		movs	r2, #1
 314 0014 FFF7FEFF 		bl	I2C_1_I2CMasterWriteBuf
 315              	.LVL28:
 316              	.L12:
  81:SD_I2C.c      ****     while((I2C_1_I2CMasterStatus() & I2C_1_I2C_MSTAT_WR_CMPLT) == 0){}
 317              		.loc 1 81 0 discriminator 1
 318 0018 FFF7FEFF 		bl	I2C_1_I2CMasterStatus
ARM GAS  C:\Users\sergio\AppData\Local\Temp\ccXoQ2wk.s 			page 8


 319              	.LVL29:
 320 001c 8307     		lsls	r3, r0, #30
 321 001e FBD5     		bpl	.L12
  82:SD_I2C.c      ****     
  83:SD_I2C.c      ****      I2C_1_I2CMasterReadBuf(address, (uint8 *) read_buff, 4, I2C_1_I2C_MODE_REPEAT_START);
 322              		.loc 1 83 0
 323 0020 0123     		movs	r3, #1
 324 0022 0422     		movs	r2, #4
 325 0024 6946     		mov	r1, sp
 326 0026 2000     		movs	r0, r4
 327 0028 FFF7FEFF 		bl	I2C_1_I2CMasterReadBuf
 328              	.LVL30:
 329              	.L13:
  84:SD_I2C.c      ****     while((I2C_1_I2CMasterStatus() & I2C_1_I2C_MSTAT_RD_CMPLT) == 0){}
 330              		.loc 1 84 0 discriminator 1
 331 002c FFF7FEFF 		bl	I2C_1_I2CMasterStatus
 332              	.LVL31:
 333 0030 C307     		lsls	r3, r0, #31
 334 0032 FBD5     		bpl	.L13
  85:SD_I2C.c      ****     
  86:SD_I2C.c      ****     int tempCurrent = (read_buff[0] << 24 | read_buff[1] << 16 | read_buff[2] << 8 | read_buff[3]);
 335              		.loc 1 86 0
 336 0034 6B46     		mov	r3, sp
 337 0036 1878     		ldrb	r0, [r3]
 338 0038 0006     		lsls	r0, r0, #24
 339 003a 5B78     		ldrb	r3, [r3, #1]
 340 003c 1B04     		lsls	r3, r3, #16
 341 003e 1843     		orrs	r0, r3
 342 0040 6B46     		mov	r3, sp
 343 0042 9B78     		ldrb	r3, [r3, #2]
 344 0044 1B02     		lsls	r3, r3, #8
 345 0046 1843     		orrs	r0, r3
 346 0048 6B46     		mov	r3, sp
 347 004a DB78     		ldrb	r3, [r3, #3]
 348 004c 1843     		orrs	r0, r3
 349              	.LVL32:
  87:SD_I2C.c      ****     float formattedCurrent = tempCurrent/10000.f;
 350              		.loc 1 87 0
 351 004e FFF7FEFF 		bl	__aeabi_i2f
 352              	.LVL33:
 353 0052 0249     		ldr	r1, .L14
 354 0054 FFF7FEFF 		bl	__aeabi_fdiv
 355              	.LVL34:
  88:SD_I2C.c      ****  
  89:SD_I2C.c      ****     return formattedCurrent;
  90:SD_I2C.c      **** }
 356              		.loc 1 90 0
 357 0058 02B0     		add	sp, sp, #8
 358              		@ sp needed
 359              	.LVL35:
 360 005a 10BD     		pop	{r4, pc}
 361              	.L15:
 362              		.align	2
 363              	.L14:
 364 005c 00401C46 		.word	1176256512
 365              		.cfi_endproc
 366              	.LFE41:
ARM GAS  C:\Users\sergio\AppData\Local\Temp\ccXoQ2wk.s 			page 9


 367              		.size	current_read, .-current_read
 368              		.section	.text.voltage_read,"ax",%progbits
 369              		.align	2
 370              		.global	voltage_read
 371              		.code	16
 372              		.thumb_func
 373              		.type	voltage_read, %function
 374              	voltage_read:
 375              	.LFB42:
  91:SD_I2C.c      **** 
  92:SD_I2C.c      **** float voltage_read(uint32 address, uint8 reg){
 376              		.loc 1 92 0
 377              		.cfi_startproc
 378              		@ args = 0, pretend = 0, frame = 0
 379              		@ frame_needed = 0, uses_anonymous_args = 0
 380              	.LVL36:
 381 0000 10B5     		push	{r4, lr}
 382              		.cfi_def_cfa_offset 8
 383              		.cfi_offset 4, -8
 384              		.cfi_offset 14, -4
  93:SD_I2C.c      ****     
  94:SD_I2C.c      ****     uint16 tempVolt = Read_sensor_word(address, reg);
 385              		.loc 1 94 0
 386 0002 FFF7FEFF 		bl	Read_sensor_word
 387              	.LVL37:
  95:SD_I2C.c      ****     float formattedVolt = tempVolt/10.0f;
 388              		.loc 1 95 0
 389 0006 FFF7FEFF 		bl	__aeabi_i2f
 390              	.LVL38:
 391 000a 0249     		ldr	r1, .L17
 392 000c FFF7FEFF 		bl	__aeabi_fdiv
 393              	.LVL39:
  96:SD_I2C.c      ****     return formattedVolt;
  97:SD_I2C.c      **** }
 394              		.loc 1 97 0
 395              		@ sp needed
 396 0010 10BD     		pop	{r4, pc}
 397              	.L18:
 398 0012 C046     		.align	2
 399              	.L17:
 400 0014 00002041 		.word	1092616192
 401              		.cfi_endproc
 402              	.LFE42:
 403              		.size	voltage_read, .-voltage_read
 404              		.section	.text.line_frequency_read,"ax",%progbits
 405              		.align	2
 406              		.global	line_frequency_read
 407              		.code	16
 408              		.thumb_func
 409              		.type	line_frequency_read, %function
 410              	line_frequency_read:
 411              	.LFB43:
  98:SD_I2C.c      **** 
  99:SD_I2C.c      **** float line_frequency_read(uint32 address, uint8 reg){
 412              		.loc 1 99 0
 413              		.cfi_startproc
 414              		@ args = 0, pretend = 0, frame = 0
ARM GAS  C:\Users\sergio\AppData\Local\Temp\ccXoQ2wk.s 			page 10


 415              		@ frame_needed = 0, uses_anonymous_args = 0
 416              	.LVL40:
 417 0000 10B5     		push	{r4, lr}
 418              		.cfi_def_cfa_offset 8
 419              		.cfi_offset 4, -8
 420              		.cfi_offset 14, -4
 100:SD_I2C.c      ****     
 101:SD_I2C.c      ****     uint16 temLFreq = Read_sensor_word(address, reg);
 421              		.loc 1 101 0
 422 0002 FFF7FEFF 		bl	Read_sensor_word
 423              	.LVL41:
 102:SD_I2C.c      ****     float formattedLineFrequency = temLFreq/1000.0f;
 424              		.loc 1 102 0
 425 0006 FFF7FEFF 		bl	__aeabi_i2f
 426              	.LVL42:
 427 000a 0249     		ldr	r1, .L20
 428 000c FFF7FEFF 		bl	__aeabi_fdiv
 429              	.LVL43:
 103:SD_I2C.c      ****     return formattedLineFrequency;
 104:SD_I2C.c      **** }
 430              		.loc 1 104 0
 431              		@ sp needed
 432 0010 10BD     		pop	{r4, pc}
 433              	.L21:
 434 0012 C046     		.align	2
 435              	.L20:
 436 0014 00007A44 		.word	1148846080
 437              		.cfi_endproc
 438              	.LFE43:
 439              		.size	line_frequency_read, .-line_frequency_read
 440              		.section	.text.x_accelerometer_read,"ax",%progbits
 441              		.align	2
 442              		.global	x_accelerometer_read
 443              		.code	16
 444              		.thumb_func
 445              		.type	x_accelerometer_read, %function
 446              	x_accelerometer_read:
 447              	.LFB44:
 105:SD_I2C.c      **** 
 106:SD_I2C.c      **** uint16 x_accelerometer_read(uint32 address, uint8 regLSB, uint8 regMSB){
 448              		.loc 1 106 0
 449              		.cfi_startproc
 450              		@ args = 0, pretend = 0, frame = 0
 451              		@ frame_needed = 0, uses_anonymous_args = 0
 452              	.LVL44:
 453 0000 70B5     		push	{r4, r5, r6, lr}
 454              		.cfi_def_cfa_offset 16
 455              		.cfi_offset 4, -16
 456              		.cfi_offset 5, -12
 457              		.cfi_offset 6, -8
 458              		.cfi_offset 14, -4
 459 0002 0500     		movs	r5, r0
 460 0004 1600     		movs	r6, r2
 107:SD_I2C.c      ****     uint8 lsb = Read_sensor_byte(address, regLSB);
 461              		.loc 1 107 0
 462 0006 FFF7FEFF 		bl	Read_sensor_byte
 463              	.LVL45:
ARM GAS  C:\Users\sergio\AppData\Local\Temp\ccXoQ2wk.s 			page 11


 464 000a 0400     		movs	r4, r0
 465              	.LVL46:
 108:SD_I2C.c      ****     uint8 msb = Read_sensor_byte(address, regMSB);
 466              		.loc 1 108 0
 467 000c 3100     		movs	r1, r6
 468 000e 2800     		movs	r0, r5
 469 0010 FFF7FEFF 		bl	Read_sensor_byte
 470              	.LVL47:
 109:SD_I2C.c      ****     
 110:SD_I2C.c      ****     uint16 x = (msb << 8) | (lsb & 0xf0);
 471              		.loc 1 110 0
 472 0014 0002     		lsls	r0, r0, #8
 473              	.LVL48:
 474 0016 0F23     		movs	r3, #15
 475 0018 9C43     		bics	r4, r3
 476              	.LVL49:
 477 001a E4B2     		uxtb	r4, r4
 478 001c 2043     		orrs	r0, r4
 479 001e 80B2     		uxth	r0, r0
 480              	.LVL50:
 111:SD_I2C.c      ****     x = x >> 4;
 481              		.loc 1 111 0
 482 0020 0009     		lsrs	r0, r0, #4
 483              	.LVL51:
 112:SD_I2C.c      ****     
 113:SD_I2C.c      ****     return x;
 114:SD_I2C.c      **** }
 484              		.loc 1 114 0
 485              		@ sp needed
 486              	.LVL52:
 487 0022 70BD     		pop	{r4, r5, r6, pc}
 488              		.cfi_endproc
 489              	.LFE44:
 490              		.size	x_accelerometer_read, .-x_accelerometer_read
 491              		.section	.text.y_accelerometer_read,"ax",%progbits
 492              		.align	2
 493              		.global	y_accelerometer_read
 494              		.code	16
 495              		.thumb_func
 496              		.type	y_accelerometer_read, %function
 497              	y_accelerometer_read:
 498              	.LFB45:
 115:SD_I2C.c      **** 
 116:SD_I2C.c      **** uint16 y_accelerometer_read(uint32 address, uint8 regLSB, uint8 regMSB){
 499              		.loc 1 116 0
 500              		.cfi_startproc
 501              		@ args = 0, pretend = 0, frame = 0
 502              		@ frame_needed = 0, uses_anonymous_args = 0
 503              	.LVL53:
 504 0000 70B5     		push	{r4, r5, r6, lr}
 505              		.cfi_def_cfa_offset 16
 506              		.cfi_offset 4, -16
 507              		.cfi_offset 5, -12
 508              		.cfi_offset 6, -8
 509              		.cfi_offset 14, -4
 510 0002 0500     		movs	r5, r0
 511 0004 1600     		movs	r6, r2
ARM GAS  C:\Users\sergio\AppData\Local\Temp\ccXoQ2wk.s 			page 12


 117:SD_I2C.c      ****     uint8 lsb = Read_sensor_byte(address, regLSB);
 512              		.loc 1 117 0
 513 0006 FFF7FEFF 		bl	Read_sensor_byte
 514              	.LVL54:
 515 000a 0400     		movs	r4, r0
 516              	.LVL55:
 118:SD_I2C.c      ****     uint8 msb = Read_sensor_byte(address, regMSB);
 517              		.loc 1 118 0
 518 000c 3100     		movs	r1, r6
 519 000e 2800     		movs	r0, r5
 520 0010 FFF7FEFF 		bl	Read_sensor_byte
 521              	.LVL56:
 119:SD_I2C.c      ****     
 120:SD_I2C.c      ****     uint16 y = msb << 8 | (lsb & 0xf0);
 522              		.loc 1 120 0
 523 0014 0002     		lsls	r0, r0, #8
 524              	.LVL57:
 525 0016 0F23     		movs	r3, #15
 526 0018 9C43     		bics	r4, r3
 527              	.LVL58:
 528 001a E4B2     		uxtb	r4, r4
 529 001c 2043     		orrs	r0, r4
 530 001e 80B2     		uxth	r0, r0
 531              	.LVL59:
 121:SD_I2C.c      ****     y = y >> 4;
 532              		.loc 1 121 0
 533 0020 0009     		lsrs	r0, r0, #4
 534              	.LVL60:
 122:SD_I2C.c      ****     
 123:SD_I2C.c      ****     return y;
 124:SD_I2C.c      **** }
 535              		.loc 1 124 0
 536              		@ sp needed
 537              	.LVL61:
 538 0022 70BD     		pop	{r4, r5, r6, pc}
 539              		.cfi_endproc
 540              	.LFE45:
 541              		.size	y_accelerometer_read, .-y_accelerometer_read
 542              		.section	.text.z_accelerometer_read,"ax",%progbits
 543              		.align	2
 544              		.global	z_accelerometer_read
 545              		.code	16
 546              		.thumb_func
 547              		.type	z_accelerometer_read, %function
 548              	z_accelerometer_read:
 549              	.LFB46:
 125:SD_I2C.c      **** 
 126:SD_I2C.c      **** uint16 z_accelerometer_read(uint32 address, uint8 regLSB, uint8 regMSB){
 550              		.loc 1 126 0
 551              		.cfi_startproc
 552              		@ args = 0, pretend = 0, frame = 0
 553              		@ frame_needed = 0, uses_anonymous_args = 0
 554              	.LVL62:
 555 0000 70B5     		push	{r4, r5, r6, lr}
 556              		.cfi_def_cfa_offset 16
 557              		.cfi_offset 4, -16
 558              		.cfi_offset 5, -12
ARM GAS  C:\Users\sergio\AppData\Local\Temp\ccXoQ2wk.s 			page 13


 559              		.cfi_offset 6, -8
 560              		.cfi_offset 14, -4
 561 0002 0500     		movs	r5, r0
 562 0004 1600     		movs	r6, r2
 127:SD_I2C.c      ****     uint8 lsb = Read_sensor_byte(address, regLSB);
 563              		.loc 1 127 0
 564 0006 FFF7FEFF 		bl	Read_sensor_byte
 565              	.LVL63:
 566 000a 0400     		movs	r4, r0
 567              	.LVL64:
 128:SD_I2C.c      ****     uint8 msb = Read_sensor_byte(address, regMSB);
 568              		.loc 1 128 0
 569 000c 3100     		movs	r1, r6
 570 000e 2800     		movs	r0, r5
 571 0010 FFF7FEFF 		bl	Read_sensor_byte
 572              	.LVL65:
 129:SD_I2C.c      ****     
 130:SD_I2C.c      ****     uint16 z = msb << 8 | (lsb & 0xf0);
 573              		.loc 1 130 0
 574 0014 0002     		lsls	r0, r0, #8
 575              	.LVL66:
 576 0016 0F23     		movs	r3, #15
 577 0018 9C43     		bics	r4, r3
 578              	.LVL67:
 579 001a E4B2     		uxtb	r4, r4
 580 001c 2043     		orrs	r0, r4
 581 001e 80B2     		uxth	r0, r0
 582              	.LVL68:
 131:SD_I2C.c      ****     z = z >> 4;
 583              		.loc 1 131 0
 584 0020 0009     		lsrs	r0, r0, #4
 585              	.LVL69:
 132:SD_I2C.c      ****     
 133:SD_I2C.c      ****     return z;
 134:SD_I2C.c      **** }
 586              		.loc 1 134 0
 587              		@ sp needed
 588              	.LVL70:
 589 0022 70BD     		pop	{r4, r5, r6, pc}
 590              		.cfi_endproc
 591              	.LFE46:
 592              		.size	z_accelerometer_read, .-z_accelerometer_read
 593              		.section	.text.gpio_expander_read,"ax",%progbits
 594              		.align	2
 595              		.global	gpio_expander_read
 596              		.code	16
 597              		.thumb_func
 598              		.type	gpio_expander_read, %function
 599              	gpio_expander_read:
 600              	.LFB47:
 135:SD_I2C.c      **** 
 136:SD_I2C.c      **** uint16 gpio_expander_read(uint32 address, uint8 reg){
 601              		.loc 1 136 0
 602              		.cfi_startproc
 603              		@ args = 0, pretend = 0, frame = 0
 604              		@ frame_needed = 0, uses_anonymous_args = 0
 605              	.LVL71:
ARM GAS  C:\Users\sergio\AppData\Local\Temp\ccXoQ2wk.s 			page 14


 606 0000 10B5     		push	{r4, lr}
 607              		.cfi_def_cfa_offset 8
 608              		.cfi_offset 4, -8
 609              		.cfi_offset 14, -4
 137:SD_I2C.c      ****     // i think to read a expecific pin i have to pass the 
 138:SD_I2C.c      ****     uint16 read = Read_sensor_byte(address, reg);
 610              		.loc 1 138 0
 611 0002 FFF7FEFF 		bl	Read_sensor_byte
 612              	.LVL72:
 139:SD_I2C.c      ****     return 0;
 140:SD_I2C.c      **** }
 613              		.loc 1 140 0
 614 0006 0020     		movs	r0, #0
 615              		@ sp needed
 616 0008 10BD     		pop	{r4, pc}
 617              		.cfi_endproc
 618              	.LFE47:
 619              		.size	gpio_expander_read, .-gpio_expander_read
 620 000a C046     		.text
 621              	.Letext0:
 622              		.file 2 "Generated_Source\\PSoC4/cytypes.h"
 623              		.file 3 "Generated_Source\\PSoC4/I2C_1_I2C.h"